; Function Attrs: mustprogress uwtable
define void @_ZN6icu_7725RelativeDateTimeFormatterC2ERKNS_6LocaleEPNS_12NumberFormatER10UErrorCode(ptr noundef nonnull align 8 dereferenceable(272) initializes((0, 48)) %0, ptr noundef nonnull align 8 dereferenceable(217) %1, ptr noundef %2, ptr noundef nonnull align 4 dereferenceable(4) %3) unnamed_addr #1 align 2 personality ptr @__gxx_personality_v0 {
  store ptr getelementptr inbounds nuw inrange(-16, 24) (i8, ptr @_ZTVN6icu_7725RelativeDateTimeFormatterE, i64 16), ptr %0, align 8, !tbaa !15
  %5 = getelementptr inbounds nuw i8, ptr %0, i64 8
  %6 = getelementptr inbounds nuw i8, ptr %0, i64 36
  tail call void @llvm.memset.p0.i64(ptr noundef nonnull align 8 dereferenceable(28) %5, i8 0, i64 28, i1 false)
  store i32 256, ptr %6, align 4, !tbaa !72
  %7 = getelementptr inbounds nuw i8, ptr %0, i64 40
  store ptr null, ptr %7, align 8, !tbaa !79
  %8 = getelementptr inbounds nuw i8, ptr %0, i64 48
  invoke void @_ZN6icu_776LocaleC1ERKS0_(ptr noundef nonnull align 8 dereferenceable(217) %8, ptr noundef nonnull align 8 dereferenceable(217) %1)
          to label %9 unwind label %11

9:                                                ; preds = %4
  invoke void @_ZN6icu_7725RelativeDateTimeFormatter4initEPNS_12NumberFormatEPNS_13BreakIteratorER10UErrorCode(ptr noundef nonnull align 8 dereferenceable(272) %0, ptr noundef %2, ptr noundef null, ptr noundef nonnull align 4 dereferenceable(4) %3)
          to label %10 unwind label %13

10:                                               ; preds = %9
  ret void

11:                                               ; preds = %4
  %12 = landingpad { ptr, i32 }
          cleanup
  br label %15

13:                                               ; preds = %9
  %14 = landingpad { ptr, i32 }
          cleanup
  tail call void @_ZN6icu_776LocaleD1Ev(ptr noundef nonnull align 8 dereferenceable(217) %8) #20
  br label %15

15:                                               ; preds = %13, %11
  %.pn = phi { ptr, i32 } [ %14, %13 ], [ %12, %11 ]
  tail call void @_ZN6icu_777UObjectD2Ev(ptr noundef nonnull align 8 dereferenceable(8) %0) #20
  resume { ptr, i32 } %.pn
}